; Function Attrs: nounwind uwtable
define internal void @cairogen_begin_job(ptr noundef readonly captures(none) %0) #0 {
  %2 = getelementptr inbounds nuw i8, ptr %0, i64 264
  %3 = load i8, ptr %2, align 8, !tbaa !3, !range !30, !noundef !31
  %4 = trunc nuw i8 %3 to i1
  br i1 %4, label %5, label %9

5:                                                ; preds = %1
  %6 = getelementptr inbounds nuw i8, ptr %0, i64 256
  %7 = load ptr, ptr %6, align 8, !tbaa !32
  %.not = icmp eq ptr %7, null
  br i1 %.not, label %9, label %8

8:                                                ; preds = %5
  tail call void @cairo_save(ptr noundef nonnull %7) #20
  br label %9

9:                                                ; preds = %8, %5, %1
  ret void
}